target datalayout = "e-m:e-p270:32:32-p271:32:32-p272:64:64-i64:64-i128:128-f80:128-n8:16:32:64-S128"
target triple = "x86_64-pc-linux-gnu"

%struct._object = type { %union.anon, ptr }
%union.anon = type { i64 }

@.str.65 = private unnamed_addr constant [40 x i8] c"../cpython/Modules/_testcapi/pyatomic.c\00", align 1
@.str.71 = private unnamed_addr constant [7 x i8] c"x == 0\00", align 1
@_Py_NoneStruct = external global %struct._object, align 8
@.str.185 = private unnamed_addr constant [50 x i8] c"_Py_atomic_compare_exchange_uint8(&x, &y, z) == 0\00", align 1
@__PRETTY_FUNCTION__.test_atomic_compare_exchange_uint8 = private unnamed_addr constant [69 x i8] c"PyObject *test_atomic_compare_exchange_uint8(PyObject *, PyObject *)\00", align 1
@.str.186 = private unnamed_addr constant [7 x i8] c"y == 0\00", align 1
@.str.187 = private unnamed_addr constant [50 x i8] c"_Py_atomic_compare_exchange_uint8(&x, &y, z) == 1\00", align 1
@.str.188 = private unnamed_addr constant [7 x i8] c"x == z\00", align 1
@.str.189 = private unnamed_addr constant [7 x i8] c"y == z\00", align 1

; Function Attrs: inlinehint nounwind uwtable
define internal i32 @_Py_atomic_compare_exchange_uint8(ptr noundef %0, ptr noundef %1, i8 noundef zeroext %2) #3 {
  %4 = alloca ptr, align 8
  %5 = alloca ptr, align 8
  %6 = alloca i8, align 1
  %7 = alloca i8, align 1
  %8 = alloca i8, align 1
  store ptr %0, ptr %4, align 8, !tbaa !16
  store ptr %1, ptr %5, align 8, !tbaa !16
  store i8 %2, ptr %6, align 1, !tbaa !8
  %9 = load ptr, ptr %4, align 8, !tbaa !16
  %10 = load ptr, ptr %5, align 8, !tbaa !16
  %11 = load i8, ptr %6, align 1, !tbaa !8
  store i8 %11, ptr %7, align 1, !tbaa !8
  %12 = load i8, ptr %10, align 1
  %13 = load i8, ptr %7, align 1
  %14 = cmpxchg ptr %9, i8 %12, i8 %13 seq_cst seq_cst, align 1
  %15 = extractvalue { i8, i1 } %14, 0
  %16 = extractvalue { i8, i1 } %14, 1
  br i1 %16, label %18, label %17

17:                                               ; preds = %3
  store i8 %15, ptr %10, align 1
  br label %18

18:                                               ; preds = %17, %3
  %19 = zext i1 %16 to i8
  store i8 %19, ptr %8, align 1, !tbaa !24
  %20 = load i8, ptr %8, align 1, !tbaa !24, !range !26, !noundef !27
  %21 = trunc i8 %20 to i1
  %22 = zext i1 %21 to i32
  ret i32 %22
}

; Function Attrs: nounwind uwtable
define internal ptr @test_atomic_compare_exchange_uint8(ptr noundef %0, ptr noundef %1) #0 {
  %3 = alloca ptr, align 8
  %4 = alloca ptr, align 8
  %5 = alloca i8, align 1
  %6 = alloca i8, align 1
  %7 = alloca i8, align 1
  store ptr %0, ptr %3, align 8, !tbaa !3
  store ptr %1, ptr %4, align 8, !tbaa !3
  call void @llvm.lifetime.start.p0(i64 1, ptr %5) #5
  store i8 0, ptr %5, align 1, !tbaa !8
  call void @llvm.lifetime.start.p0(i64 1, ptr %6) #5
  store i8 1, ptr %6, align 1, !tbaa !8
  call void @llvm.lifetime.start.p0(i64 1, ptr %7) #5
  store i8 2, ptr %7, align 1, !tbaa !8
  %8 = load i8, ptr %7, align 1, !tbaa !8
  %9 = call i32 @_Py_atomic_compare_exchange_uint8(ptr noundef %5, ptr noundef %6, i8 noundef zeroext %8)
  %10 = icmp eq i32 %9, 0
  br i1 %10, label %11, label %12

11:                                               ; preds = %2
  br label %14

12:                                               ; preds = %2
  call void @__assert_fail(ptr noundef @.str.185, ptr noundef @.str.65, i32 noundef 73, ptr noundef @__PRETTY_FUNCTION__.test_atomic_compare_exchange_uint8) #6
  unreachable

13:                                               ; No predecessors!
  br label %14

14:                                               ; preds = %13, %11
  %15 = load i8, ptr %5, align 1, !tbaa !8
  %16 = zext i8 %15 to i32
  %17 = icmp eq i32 %16, 0
  br i1 %17, label %18, label %19

18:                                               ; preds = %14
  br label %21

19:                                               ; preds = %14
  call void @__assert_fail(ptr noundef @.str.71, ptr noundef @.str.65, i32 noundef 73, ptr noundef @__PRETTY_FUNCTION__.test_atomic_compare_exchange_uint8) #6
  unreachable

20:                                               ; No predecessors!
  br label %21

21:                                               ; preds = %20, %18
  %22 = load i8, ptr %6, align 1, !tbaa !8
  %23 = zext i8 %22 to i32
  %24 = icmp eq i32 %23, 0
  br i1 %24, label %25, label %26

25:                                               ; preds = %21
  br label %28

26:                                               ; preds = %21
  call void @__assert_fail(ptr noundef @.str.186, ptr noundef @.str.65, i32 noundef 73, ptr noundef @__PRETTY_FUNCTION__.test_atomic_compare_exchange_uint8) #6
  unreachable

27:                                               ; No predecessors!
  br label %28

28:                                               ; preds = %27, %25
  %29 = load i8, ptr %7, align 1, !tbaa !8
  %30 = call i32 @_Py_atomic_compare_exchange_uint8(ptr noundef %5, ptr noundef %6, i8 noundef zeroext %29)
  %31 = icmp eq i32 %30, 1
  br i1 %31, label %32, label %33

32:                                               ; preds = %28
  br label %35

33:                                               ; preds = %28
  call void @__assert_fail(ptr noundef @.str.187, ptr noundef @.str.65, i32 noundef 73, ptr noundef @__PRETTY_FUNCTION__.test_atomic_compare_exchange_uint8) #6
  unreachable

34:                                               ; No predecessors!
  br label %35

35:                                               ; preds = %34, %32
  %36 = load i8, ptr %5, align 1, !tbaa !8
  %37 = zext i8 %36 to i32
  %38 = load i8, ptr %7, align 1, !tbaa !8
  %39 = zext i8 %38 to i32
  %40 = icmp eq i32 %37, %39
  br i1 %40, label %41, label %42

41:                                               ; preds = %35
  br label %44

42:                                               ; preds = %35
  call void @__assert_fail(ptr noundef @.str.188, ptr noundef @.str.65, i32 noundef 73, ptr noundef @__PRETTY_FUNCTION__.test_atomic_compare_exchange_uint8) #6
  unreachable

43:                                               ; No predecessors!
  br label %44

44:                                               ; preds = %43, %41
  %45 = load i8, ptr %6, align 1, !tbaa !8
  %46 = zext i8 %45 to i32
  %47 = icmp eq i32 %46, 0
  br i1 %47, label %48, label %49

48:                                               ; preds = %44
  br label %51

49:                                               ; preds = %44
  call void @__assert_fail(ptr noundef @.str.186, ptr noundef @.str.65, i32 noundef 73, ptr noundef @__PRETTY_FUNCTION__.test_atomic_compare_exchange_uint8) #6
  unreachable

50:                                               ; No predecessors!
  br label %51

51:                                               ; preds = %50, %48
  %52 = load i8, ptr %7, align 1, !tbaa !8
  %53 = call i32 @_Py_atomic_compare_exchange_uint8(ptr noundef %5, ptr noundef %6, i8 noundef zeroext %52)
  %54 = icmp eq i32 %53, 0
  br i1 %54, label %55, label %56

55:                                               ; preds = %51
  br label %58

56:                                               ; preds = %51
  call void @__assert_fail(ptr noundef @.str.185, ptr noundef @.str.65, i32 noundef 73, ptr noundef @__PRETTY_FUNCTION__.test_atomic_compare_exchange_uint8) #6
  unreachable

57:                                               ; No predecessors!
  br label %58

58:                                               ; preds = %57, %55
  %59 = load i8, ptr %5, align 1, !tbaa !8
  %60 = zext i8 %59 to i32
  %61 = load i8, ptr %7, align 1, !tbaa !8
  %62 = zext i8 %61 to i32
  %63 = icmp eq i32 %60, %62
  br i1 %63, label %64, label %65

64:                                               ; preds = %58
  br label %67

65:                                               ; preds = %58
  call void @__assert_fail(ptr noundef @.str.188, ptr noundef @.str.65, i32 noundef 73, ptr noundef @__PRETTY_FUNCTION__.test_atomic_compare_exchange_uint8) #6
  unreachable

66:                                               ; No predecessors!
  br label %67

67:                                               ; preds = %66, %64
  %68 = load i8, ptr %6, align 1, !tbaa !8
  %69 = zext i8 %68 to i32
  %70 = load i8, ptr %7, align 1, !tbaa !8
  %71 = zext i8 %70 to i32
  %72 = icmp eq i32 %69, %71
  br i1 %72, label %73, label %74

73:                                               ; preds = %67
  br label %76

74:                                               ; preds = %67
  call void @__assert_fail(ptr noundef @.str.189, ptr noundef @.str.65, i32 noundef 73, ptr noundef @__PRETTY_FUNCTION__.test_atomic_compare_exchange_uint8) #6
  unreachable

75:                                               ; No predecessors!
  br label %76

76:                                               ; preds = %75, %73
  call void @llvm.lifetime.end.p0(i64 1, ptr %7) #5
  call void @llvm.lifetime.end.p0(i64 1, ptr %6) #5
  call void @llvm.lifetime.end.p0(i64 1, ptr %5) #5
  ret ptr @_Py_NoneStruct
}